ARM GAS  C:\Users\michael\AppData\Local\Temp\ccbZITOd.s 			page 1


   1              		.cpu cortex-m4
   2              		.arch armv7e-m
   3              		.fpu fpv4-sp-d16
   4              		.eabi_attribute 27, 1
   5              		.eabi_attribute 28, 1
   6              		.eabi_attribute 20, 1
   7              		.eabi_attribute 21, 1
   8              		.eabi_attribute 23, 3
   9              		.eabi_attribute 24, 1
  10              		.eabi_attribute 25, 1
  11              		.eabi_attribute 26, 1
  12              		.eabi_attribute 30, 1
  13              		.eabi_attribute 34, 1
  14              		.eabi_attribute 18, 4
  15              		.file	"usart.c"
  16              		.text
  17              	.Ltext0:
  18              		.cfi_sections	.debug_frame
  19              		.file 1 "Core/Src/usart.c"
  20              		.section	.text.MX_USART1_UART_Init,"ax",%progbits
  21              		.align	1
  22              		.global	MX_USART1_UART_Init
  23              		.syntax unified
  24              		.thumb
  25              		.thumb_func
  27              	MX_USART1_UART_Init:
  28              	.LFB132:
   1:Core/Src/usart.c **** /* USER CODE BEGIN Header */
   2:Core/Src/usart.c **** /**
   3:Core/Src/usart.c ****   ******************************************************************************
   4:Core/Src/usart.c ****   * @file    usart.c
   5:Core/Src/usart.c ****   * @brief   This file provides code for the configuration
   6:Core/Src/usart.c ****   *          of the USART instances.
   7:Core/Src/usart.c ****   ******************************************************************************
   8:Core/Src/usart.c ****   * @attention
   9:Core/Src/usart.c ****   *
  10:Core/Src/usart.c ****   * Copyright (c) 2025 STMicroelectronics.
  11:Core/Src/usart.c ****   * All rights reserved.
  12:Core/Src/usart.c ****   *
  13:Core/Src/usart.c ****   * This software is licensed under terms that can be found in the LICENSE file
  14:Core/Src/usart.c ****   * in the root directory of this software component.
  15:Core/Src/usart.c ****   * If no LICENSE file comes with this software, it is provided AS-IS.
  16:Core/Src/usart.c ****   *
  17:Core/Src/usart.c ****   ******************************************************************************
  18:Core/Src/usart.c ****   */
  19:Core/Src/usart.c **** /* USER CODE END Header */
  20:Core/Src/usart.c **** /* Includes ------------------------------------------------------------------*/
  21:Core/Src/usart.c **** #include "usart.h"
  22:Core/Src/usart.c **** 
  23:Core/Src/usart.c **** /* USER CODE BEGIN 0 */
  24:Core/Src/usart.c **** 
  25:Core/Src/usart.c **** /* USER CODE END 0 */
  26:Core/Src/usart.c **** 
  27:Core/Src/usart.c **** UART_HandleTypeDef huart1;
  28:Core/Src/usart.c **** UART_HandleTypeDef huart2;
  29:Core/Src/usart.c **** 
  30:Core/Src/usart.c **** /* USART1 init function */
ARM GAS  C:\Users\michael\AppData\Local\Temp\ccbZITOd.s 			page 2


  31:Core/Src/usart.c **** 
  32:Core/Src/usart.c **** void MX_USART1_UART_Init(void)
  33:Core/Src/usart.c **** {
  29              		.loc 1 33 1 view -0
  30              		.cfi_startproc
  31              		@ args = 0, pretend = 0, frame = 0
  32              		@ frame_needed = 0, uses_anonymous_args = 0
  33 0000 08B5     		push	{r3, lr}
  34              	.LCFI0:
  35              		.cfi_def_cfa_offset 8
  36              		.cfi_offset 3, -8
  37              		.cfi_offset 14, -4
  34:Core/Src/usart.c **** 
  35:Core/Src/usart.c ****   /* USER CODE BEGIN USART1_Init 0 */
  36:Core/Src/usart.c **** 
  37:Core/Src/usart.c ****   /* USER CODE END USART1_Init 0 */
  38:Core/Src/usart.c **** 
  39:Core/Src/usart.c ****   /* USER CODE BEGIN USART1_Init 1 */
  40:Core/Src/usart.c **** 
  41:Core/Src/usart.c ****   /* USER CODE END USART1_Init 1 */
  42:Core/Src/usart.c ****   huart1.Instance = USART1;
  38              		.loc 1 42 3 view .LVU1
  39              		.loc 1 42 19 is_stmt 0 view .LVU2
  40 0002 1748     		ldr	r0, .L11
  41 0004 174B     		ldr	r3, .L11+4
  42 0006 0360     		str	r3, [r0]
  43:Core/Src/usart.c ****   huart1.Init.BaudRate = 115200;
  43              		.loc 1 43 3 is_stmt 1 view .LVU3
  44              		.loc 1 43 24 is_stmt 0 view .LVU4
  45 0008 4FF4E133 		mov	r3, #115200
  46 000c 4360     		str	r3, [r0, #4]
  44:Core/Src/usart.c ****   huart1.Init.WordLength = UART_WORDLENGTH_8B;
  47              		.loc 1 44 3 is_stmt 1 view .LVU5
  48              		.loc 1 44 26 is_stmt 0 view .LVU6
  49 000e 0023     		movs	r3, #0
  50 0010 8360     		str	r3, [r0, #8]
  45:Core/Src/usart.c ****   huart1.Init.StopBits = UART_STOPBITS_1;
  51              		.loc 1 45 3 is_stmt 1 view .LVU7
  52              		.loc 1 45 24 is_stmt 0 view .LVU8
  53 0012 C360     		str	r3, [r0, #12]
  46:Core/Src/usart.c ****   huart1.Init.Parity = UART_PARITY_NONE;
  54              		.loc 1 46 3 is_stmt 1 view .LVU9
  55              		.loc 1 46 22 is_stmt 0 view .LVU10
  56 0014 0361     		str	r3, [r0, #16]
  47:Core/Src/usart.c ****   huart1.Init.Mode = UART_MODE_TX_RX;
  57              		.loc 1 47 3 is_stmt 1 view .LVU11
  58              		.loc 1 47 20 is_stmt 0 view .LVU12
  59 0016 0C22     		movs	r2, #12
  60 0018 4261     		str	r2, [r0, #20]
  48:Core/Src/usart.c ****   huart1.Init.HwFlowCtl = UART_HWCONTROL_NONE;
  61              		.loc 1 48 3 is_stmt 1 view .LVU13
  62              		.loc 1 48 25 is_stmt 0 view .LVU14
  63 001a 8361     		str	r3, [r0, #24]
  49:Core/Src/usart.c ****   huart1.Init.OverSampling = UART_OVERSAMPLING_16;
  64              		.loc 1 49 3 is_stmt 1 view .LVU15
  65              		.loc 1 49 28 is_stmt 0 view .LVU16
  66 001c C361     		str	r3, [r0, #28]
ARM GAS  C:\Users\michael\AppData\Local\Temp\ccbZITOd.s 			page 3


  50:Core/Src/usart.c ****   huart1.Init.OneBitSampling = UART_ONE_BIT_SAMPLE_DISABLE;
  67              		.loc 1 50 3 is_stmt 1 view .LVU17
  68              		.loc 1 50 30 is_stmt 0 view .LVU18
  69 001e 0362     		str	r3, [r0, #32]
  51:Core/Src/usart.c ****   huart1.Init.ClockPrescaler = UART_PRESCALER_DIV1;
  70              		.loc 1 51 3 is_stmt 1 view .LVU19
  71              		.loc 1 51 30 is_stmt 0 view .LVU20
  72 0020 4362     		str	r3, [r0, #36]
  52:Core/Src/usart.c ****   huart1.AdvancedInit.AdvFeatureInit = UART_ADVFEATURE_NO_INIT;
  73              		.loc 1 52 3 is_stmt 1 view .LVU21
  74              		.loc 1 52 38 is_stmt 0 view .LVU22
  75 0022 8362     		str	r3, [r0, #40]
  53:Core/Src/usart.c ****   if (HAL_UART_Init(&huart1) != HAL_OK)
  76              		.loc 1 53 3 is_stmt 1 view .LVU23
  77              		.loc 1 53 7 is_stmt 0 view .LVU24
  78 0024 FFF7FEFF 		bl	HAL_UART_Init
  79              	.LVL0:
  80              		.loc 1 53 6 discriminator 1 view .LVU25
  81 0028 70B9     		cbnz	r0, .L7
  82              	.L2:
  54:Core/Src/usart.c ****   {
  55:Core/Src/usart.c ****     Error_Handler();
  56:Core/Src/usart.c ****   }
  57:Core/Src/usart.c ****   if (HAL_UARTEx_SetTxFifoThreshold(&huart1, UART_TXFIFO_THRESHOLD_1_8) != HAL_OK)
  83              		.loc 1 57 3 is_stmt 1 view .LVU26
  84              		.loc 1 57 7 is_stmt 0 view .LVU27
  85 002a 0021     		movs	r1, #0
  86 002c 0C48     		ldr	r0, .L11
  87 002e FFF7FEFF 		bl	HAL_UARTEx_SetTxFifoThreshold
  88              	.LVL1:
  89              		.loc 1 57 6 discriminator 1 view .LVU28
  90 0032 60B9     		cbnz	r0, .L8
  91              	.L3:
  58:Core/Src/usart.c ****   {
  59:Core/Src/usart.c ****     Error_Handler();
  60:Core/Src/usart.c ****   }
  61:Core/Src/usart.c ****   if (HAL_UARTEx_SetRxFifoThreshold(&huart1, UART_RXFIFO_THRESHOLD_1_8) != HAL_OK)
  92              		.loc 1 61 3 is_stmt 1 view .LVU29
  93              		.loc 1 61 7 is_stmt 0 view .LVU30
  94 0034 0021     		movs	r1, #0
  95 0036 0A48     		ldr	r0, .L11
  96 0038 FFF7FEFF 		bl	HAL_UARTEx_SetRxFifoThreshold
  97              	.LVL2:
  98              		.loc 1 61 6 discriminator 1 view .LVU31
  99 003c 50B9     		cbnz	r0, .L9
 100              	.L4:
  62:Core/Src/usart.c ****   {
  63:Core/Src/usart.c ****     Error_Handler();
  64:Core/Src/usart.c ****   }
  65:Core/Src/usart.c ****   if (HAL_UARTEx_DisableFifoMode(&huart1) != HAL_OK)
 101              		.loc 1 65 3 is_stmt 1 view .LVU32
 102              		.loc 1 65 7 is_stmt 0 view .LVU33
 103 003e 0848     		ldr	r0, .L11
 104 0040 FFF7FEFF 		bl	HAL_UARTEx_DisableFifoMode
 105              	.LVL3:
 106              		.loc 1 65 6 discriminator 1 view .LVU34
 107 0044 48B9     		cbnz	r0, .L10
ARM GAS  C:\Users\michael\AppData\Local\Temp\ccbZITOd.s 			page 4


 108              	.L1:
  66:Core/Src/usart.c ****   {
  67:Core/Src/usart.c ****     Error_Handler();
  68:Core/Src/usart.c ****   }
  69:Core/Src/usart.c ****   /* USER CODE BEGIN USART1_Init 2 */
  70:Core/Src/usart.c **** 
  71:Core/Src/usart.c ****   /* USER CODE END USART1_Init 2 */
  72:Core/Src/usart.c **** 
  73:Core/Src/usart.c **** }
 109              		.loc 1 73 1 view .LVU35
 110 0046 08BD     		pop	{r3, pc}
 111              	.L7:
  55:Core/Src/usart.c ****   }
 112              		.loc 1 55 5 is_stmt 1 view .LVU36
 113 0048 FFF7FEFF 		bl	Error_Handler
 114              	.LVL4:
 115 004c EDE7     		b	.L2
 116              	.L8:
  59:Core/Src/usart.c ****   }
 117              		.loc 1 59 5 view .LVU37
 118 004e FFF7FEFF 		bl	Error_Handler
 119              	.LVL5:
 120 0052 EFE7     		b	.L3
 121              	.L9:
  63:Core/Src/usart.c ****   }
 122              		.loc 1 63 5 view .LVU38
 123 0054 FFF7FEFF 		bl	Error_Handler
 124              	.LVL6:
 125 0058 F1E7     		b	.L4
 126              	.L10:
  67:Core/Src/usart.c ****   }
 127              		.loc 1 67 5 view .LVU39
 128 005a FFF7FEFF 		bl	Error_Handler
 129              	.LVL7:
 130              		.loc 1 73 1 is_stmt 0 view .LVU40
 131 005e F2E7     		b	.L1
 132              	.L12:
 133              		.align	2
 134              	.L11:
 135 0060 00000000 		.word	huart1
 136 0064 00380140 		.word	1073821696
 137              		.cfi_endproc
 138              	.LFE132:
 140              		.section	.text.MX_USART2_UART_Init,"ax",%progbits
 141              		.align	1
 142              		.global	MX_USART2_UART_Init
 143              		.syntax unified
 144              		.thumb
 145              		.thumb_func
 147              	MX_USART2_UART_Init:
 148              	.LFB133:
  74:Core/Src/usart.c **** /* USART2 init function */
  75:Core/Src/usart.c **** 
  76:Core/Src/usart.c **** void MX_USART2_UART_Init(void)
  77:Core/Src/usart.c **** {
 149              		.loc 1 77 1 is_stmt 1 view -0
 150              		.cfi_startproc
ARM GAS  C:\Users\michael\AppData\Local\Temp\ccbZITOd.s 			page 5


 151              		@ args = 0, pretend = 0, frame = 0
 152              		@ frame_needed = 0, uses_anonymous_args = 0
 153 0000 08B5     		push	{r3, lr}
 154              	.LCFI1:
 155              		.cfi_def_cfa_offset 8
 156              		.cfi_offset 3, -8
 157              		.cfi_offset 14, -4
  78:Core/Src/usart.c **** 
  79:Core/Src/usart.c ****   /* USER CODE BEGIN USART2_Init 0 */
  80:Core/Src/usart.c **** 
  81:Core/Src/usart.c ****   /* USER CODE END USART2_Init 0 */
  82:Core/Src/usart.c **** 
  83:Core/Src/usart.c ****   /* USER CODE BEGIN USART2_Init 1 */
  84:Core/Src/usart.c **** 
  85:Core/Src/usart.c ****   /* USER CODE END USART2_Init 1 */
  86:Core/Src/usart.c ****   huart2.Instance = USART2;
 158              		.loc 1 86 3 view .LVU42
 159              		.loc 1 86 19 is_stmt 0 view .LVU43
 160 0002 1748     		ldr	r0, .L23
 161 0004 174B     		ldr	r3, .L23+4
 162 0006 0360     		str	r3, [r0]
  87:Core/Src/usart.c ****   huart2.Init.BaudRate = 115200;
 163              		.loc 1 87 3 is_stmt 1 view .LVU44
 164              		.loc 1 87 24 is_stmt 0 view .LVU45
 165 0008 4FF4E133 		mov	r3, #115200
 166 000c 4360     		str	r3, [r0, #4]
  88:Core/Src/usart.c ****   huart2.Init.WordLength = UART_WORDLENGTH_8B;
 167              		.loc 1 88 3 is_stmt 1 view .LVU46
 168              		.loc 1 88 26 is_stmt 0 view .LVU47
 169 000e 0023     		movs	r3, #0
 170 0010 8360     		str	r3, [r0, #8]
  89:Core/Src/usart.c ****   huart2.Init.StopBits = UART_STOPBITS_1;
 171              		.loc 1 89 3 is_stmt 1 view .LVU48
 172              		.loc 1 89 24 is_stmt 0 view .LVU49
 173 0012 C360     		str	r3, [r0, #12]
  90:Core/Src/usart.c ****   huart2.Init.Parity = UART_PARITY_NONE;
 174              		.loc 1 90 3 is_stmt 1 view .LVU50
 175              		.loc 1 90 22 is_stmt 0 view .LVU51
 176 0014 0361     		str	r3, [r0, #16]
  91:Core/Src/usart.c ****   huart2.Init.Mode = UART_MODE_TX_RX;
 177              		.loc 1 91 3 is_stmt 1 view .LVU52
 178              		.loc 1 91 20 is_stmt 0 view .LVU53
 179 0016 0C22     		movs	r2, #12
 180 0018 4261     		str	r2, [r0, #20]
  92:Core/Src/usart.c ****   huart2.Init.HwFlowCtl = UART_HWCONTROL_NONE;
 181              		.loc 1 92 3 is_stmt 1 view .LVU54
 182              		.loc 1 92 25 is_stmt 0 view .LVU55
 183 001a 8361     		str	r3, [r0, #24]
  93:Core/Src/usart.c ****   huart2.Init.OverSampling = UART_OVERSAMPLING_16;
 184              		.loc 1 93 3 is_stmt 1 view .LVU56
 185              		.loc 1 93 28 is_stmt 0 view .LVU57
 186 001c C361     		str	r3, [r0, #28]
  94:Core/Src/usart.c ****   huart2.Init.OneBitSampling = UART_ONE_BIT_SAMPLE_DISABLE;
 187              		.loc 1 94 3 is_stmt 1 view .LVU58
 188              		.loc 1 94 30 is_stmt 0 view .LVU59
 189 001e 0362     		str	r3, [r0, #32]
  95:Core/Src/usart.c ****   huart2.Init.ClockPrescaler = UART_PRESCALER_DIV1;
ARM GAS  C:\Users\michael\AppData\Local\Temp\ccbZITOd.s 			page 6


 190              		.loc 1 95 3 is_stmt 1 view .LVU60
 191              		.loc 1 95 30 is_stmt 0 view .LVU61
 192 0020 4362     		str	r3, [r0, #36]
  96:Core/Src/usart.c ****   huart2.AdvancedInit.AdvFeatureInit = UART_ADVFEATURE_NO_INIT;
 193              		.loc 1 96 3 is_stmt 1 view .LVU62
 194              		.loc 1 96 38 is_stmt 0 view .LVU63
 195 0022 8362     		str	r3, [r0, #40]
  97:Core/Src/usart.c ****   if (HAL_UART_Init(&huart2) != HAL_OK)
 196              		.loc 1 97 3 is_stmt 1 view .LVU64
 197              		.loc 1 97 7 is_stmt 0 view .LVU65
 198 0024 FFF7FEFF 		bl	HAL_UART_Init
 199              	.LVL8:
 200              		.loc 1 97 6 discriminator 1 view .LVU66
 201 0028 70B9     		cbnz	r0, .L19
 202              	.L14:
  98:Core/Src/usart.c ****   {
  99:Core/Src/usart.c ****     Error_Handler();
 100:Core/Src/usart.c ****   }
 101:Core/Src/usart.c ****   if (HAL_UARTEx_SetTxFifoThreshold(&huart2, UART_TXFIFO_THRESHOLD_1_8) != HAL_OK)
 203              		.loc 1 101 3 is_stmt 1 view .LVU67
 204              		.loc 1 101 7 is_stmt 0 view .LVU68
 205 002a 0021     		movs	r1, #0
 206 002c 0C48     		ldr	r0, .L23
 207 002e FFF7FEFF 		bl	HAL_UARTEx_SetTxFifoThreshold
 208              	.LVL9:
 209              		.loc 1 101 6 discriminator 1 view .LVU69
 210 0032 60B9     		cbnz	r0, .L20
 211              	.L15:
 102:Core/Src/usart.c ****   {
 103:Core/Src/usart.c ****     Error_Handler();
 104:Core/Src/usart.c ****   }
 105:Core/Src/usart.c ****   if (HAL_UARTEx_SetRxFifoThreshold(&huart2, UART_RXFIFO_THRESHOLD_1_8) != HAL_OK)
 212              		.loc 1 105 3 is_stmt 1 view .LVU70
 213              		.loc 1 105 7 is_stmt 0 view .LVU71
 214 0034 0021     		movs	r1, #0
 215 0036 0A48     		ldr	r0, .L23
 216 0038 FFF7FEFF 		bl	HAL_UARTEx_SetRxFifoThreshold
 217              	.LVL10:
 218              		.loc 1 105 6 discriminator 1 view .LVU72
 219 003c 50B9     		cbnz	r0, .L21
 220              	.L16:
 106:Core/Src/usart.c ****   {
 107:Core/Src/usart.c ****     Error_Handler();
 108:Core/Src/usart.c ****   }
 109:Core/Src/usart.c ****   if (HAL_UARTEx_DisableFifoMode(&huart2) != HAL_OK)
 221              		.loc 1 109 3 is_stmt 1 view .LVU73
 222              		.loc 1 109 7 is_stmt 0 view .LVU74
 223 003e 0848     		ldr	r0, .L23
 224 0040 FFF7FEFF 		bl	HAL_UARTEx_DisableFifoMode
 225              	.LVL11:
 226              		.loc 1 109 6 discriminator 1 view .LVU75
 227 0044 48B9     		cbnz	r0, .L22
 228              	.L13:
 110:Core/Src/usart.c ****   {
 111:Core/Src/usart.c ****     Error_Handler();
 112:Core/Src/usart.c ****   }
 113:Core/Src/usart.c ****   /* USER CODE BEGIN USART2_Init 2 */
ARM GAS  C:\Users\michael\AppData\Local\Temp\ccbZITOd.s 			page 7


 114:Core/Src/usart.c **** 
 115:Core/Src/usart.c ****   /* USER CODE END USART2_Init 2 */
 116:Core/Src/usart.c **** 
 117:Core/Src/usart.c **** }
 229              		.loc 1 117 1 view .LVU76
 230 0046 08BD     		pop	{r3, pc}
 231              	.L19:
  99:Core/Src/usart.c ****   }
 232              		.loc 1 99 5 is_stmt 1 view .LVU77
 233 0048 FFF7FEFF 		bl	Error_Handler
 234              	.LVL12:
 235 004c EDE7     		b	.L14
 236              	.L20:
 103:Core/Src/usart.c ****   }
 237              		.loc 1 103 5 view .LVU78
 238 004e FFF7FEFF 		bl	Error_Handler
 239              	.LVL13:
 240 0052 EFE7     		b	.L15
 241              	.L21:
 107:Core/Src/usart.c ****   }
 242              		.loc 1 107 5 view .LVU79
 243 0054 FFF7FEFF 		bl	Error_Handler
 244              	.LVL14:
 245 0058 F1E7     		b	.L16
 246              	.L22:
 111:Core/Src/usart.c ****   }
 247              		.loc 1 111 5 view .LVU80
 248 005a FFF7FEFF 		bl	Error_Handler
 249              	.LVL15:
 250              		.loc 1 117 1 is_stmt 0 view .LVU81
 251 005e F2E7     		b	.L13
 252              	.L24:
 253              		.align	2
 254              	.L23:
 255 0060 00000000 		.word	huart2
 256 0064 00440040 		.word	1073759232
 257              		.cfi_endproc
 258              	.LFE133:
 260              		.section	.text.HAL_UART_MspInit,"ax",%progbits
 261              		.align	1
 262              		.global	HAL_UART_MspInit
 263              		.syntax unified
 264              		.thumb
 265              		.thumb_func
 267              	HAL_UART_MspInit:
 268              	.LVL16:
 269              	.LFB134:
 118:Core/Src/usart.c **** 
 119:Core/Src/usart.c **** void HAL_UART_MspInit(UART_HandleTypeDef* uartHandle)
 120:Core/Src/usart.c **** {
 270              		.loc 1 120 1 is_stmt 1 view -0
 271              		.cfi_startproc
 272              		@ args = 0, pretend = 0, frame = 120
 273              		@ frame_needed = 0, uses_anonymous_args = 0
 274              		.loc 1 120 1 is_stmt 0 view .LVU83
 275 0000 10B5     		push	{r4, lr}
 276              	.LCFI2:
ARM GAS  C:\Users\michael\AppData\Local\Temp\ccbZITOd.s 			page 8


 277              		.cfi_def_cfa_offset 8
 278              		.cfi_offset 4, -8
 279              		.cfi_offset 14, -4
 280 0002 9EB0     		sub	sp, sp, #120
 281              	.LCFI3:
 282              		.cfi_def_cfa_offset 128
 283 0004 0446     		mov	r4, r0
 121:Core/Src/usart.c **** 
 122:Core/Src/usart.c ****   GPIO_InitTypeDef GPIO_InitStruct = {0};
 284              		.loc 1 122 3 is_stmt 1 view .LVU84
 285              		.loc 1 122 20 is_stmt 0 view .LVU85
 286 0006 0021     		movs	r1, #0
 287 0008 1991     		str	r1, [sp, #100]
 288 000a 1A91     		str	r1, [sp, #104]
 289 000c 1B91     		str	r1, [sp, #108]
 290 000e 1C91     		str	r1, [sp, #112]
 291 0010 1D91     		str	r1, [sp, #116]
 123:Core/Src/usart.c ****   RCC_PeriphCLKInitTypeDef PeriphClkInit = {0};
 292              		.loc 1 123 3 is_stmt 1 view .LVU86
 293              		.loc 1 123 28 is_stmt 0 view .LVU87
 294 0012 5422     		movs	r2, #84
 295 0014 04A8     		add	r0, sp, #16
 296              	.LVL17:
 297              		.loc 1 123 28 view .LVU88
 298 0016 FFF7FEFF 		bl	memset
 299              	.LVL18:
 124:Core/Src/usart.c ****   if(uartHandle->Instance==USART1)
 300              		.loc 1 124 3 is_stmt 1 view .LVU89
 301              		.loc 1 124 16 is_stmt 0 view .LVU90
 302 001a 2368     		ldr	r3, [r4]
 303              		.loc 1 124 5 view .LVU91
 304 001c 2F4A     		ldr	r2, .L35
 305 001e 9342     		cmp	r3, r2
 306 0020 04D0     		beq	.L31
 125:Core/Src/usart.c ****   {
 126:Core/Src/usart.c ****   /* USER CODE BEGIN USART1_MspInit 0 */
 127:Core/Src/usart.c **** 
 128:Core/Src/usart.c ****   /* USER CODE END USART1_MspInit 0 */
 129:Core/Src/usart.c **** 
 130:Core/Src/usart.c ****   /** Initializes the peripherals clocks
 131:Core/Src/usart.c ****   */
 132:Core/Src/usart.c ****     PeriphClkInit.PeriphClockSelection = RCC_PERIPHCLK_USART1;
 133:Core/Src/usart.c ****     PeriphClkInit.Usart1ClockSelection = RCC_USART1CLKSOURCE_PCLK2;
 134:Core/Src/usart.c ****     if (HAL_RCCEx_PeriphCLKConfig(&PeriphClkInit) != HAL_OK)
 135:Core/Src/usart.c ****     {
 136:Core/Src/usart.c ****       Error_Handler();
 137:Core/Src/usart.c ****     }
 138:Core/Src/usart.c **** 
 139:Core/Src/usart.c ****     /* USART1 clock enable */
 140:Core/Src/usart.c ****     __HAL_RCC_USART1_CLK_ENABLE();
 141:Core/Src/usart.c **** 
 142:Core/Src/usart.c ****     __HAL_RCC_GPIOA_CLK_ENABLE();
 143:Core/Src/usart.c ****     /**USART1 GPIO Configuration
 144:Core/Src/usart.c ****     PA9     ------> USART1_TX
 145:Core/Src/usart.c ****     PA10     ------> USART1_RX
 146:Core/Src/usart.c ****     */
 147:Core/Src/usart.c ****     GPIO_InitStruct.Pin = GPIO_PIN_9|GPIO_PIN_10;
ARM GAS  C:\Users\michael\AppData\Local\Temp\ccbZITOd.s 			page 9


 148:Core/Src/usart.c ****     GPIO_InitStruct.Mode = GPIO_MODE_AF_PP;
 149:Core/Src/usart.c ****     GPIO_InitStruct.Pull = GPIO_NOPULL;
 150:Core/Src/usart.c ****     GPIO_InitStruct.Speed = GPIO_SPEED_FREQ_LOW;
 151:Core/Src/usart.c ****     GPIO_InitStruct.Alternate = GPIO_AF7_USART1;
 152:Core/Src/usart.c ****     HAL_GPIO_Init(GPIOA, &GPIO_InitStruct);
 153:Core/Src/usart.c **** 
 154:Core/Src/usart.c ****   /* USER CODE BEGIN USART1_MspInit 1 */
 155:Core/Src/usart.c **** 
 156:Core/Src/usart.c ****   /* USER CODE END USART1_MspInit 1 */
 157:Core/Src/usart.c ****   }
 158:Core/Src/usart.c ****   else if(uartHandle->Instance==USART2)
 307              		.loc 1 158 8 is_stmt 1 view .LVU92
 308              		.loc 1 158 10 is_stmt 0 view .LVU93
 309 0022 2F4A     		ldr	r2, .L35+4
 310 0024 9342     		cmp	r3, r2
 311 0026 2DD0     		beq	.L32
 312              	.L25:
 159:Core/Src/usart.c ****   {
 160:Core/Src/usart.c ****   /* USER CODE BEGIN USART2_MspInit 0 */
 161:Core/Src/usart.c **** 
 162:Core/Src/usart.c ****   /* USER CODE END USART2_MspInit 0 */
 163:Core/Src/usart.c **** 
 164:Core/Src/usart.c ****   /** Initializes the peripherals clocks
 165:Core/Src/usart.c ****   */
 166:Core/Src/usart.c ****     PeriphClkInit.PeriphClockSelection = RCC_PERIPHCLK_USART2;
 167:Core/Src/usart.c ****     PeriphClkInit.Usart2ClockSelection = RCC_USART2CLKSOURCE_PCLK1;
 168:Core/Src/usart.c ****     if (HAL_RCCEx_PeriphCLKConfig(&PeriphClkInit) != HAL_OK)
 169:Core/Src/usart.c ****     {
 170:Core/Src/usart.c ****       Error_Handler();
 171:Core/Src/usart.c ****     }
 172:Core/Src/usart.c **** 
 173:Core/Src/usart.c ****     /* USART2 clock enable */
 174:Core/Src/usart.c ****     __HAL_RCC_USART2_CLK_ENABLE();
 175:Core/Src/usart.c **** 
 176:Core/Src/usart.c ****     __HAL_RCC_GPIOA_CLK_ENABLE();
 177:Core/Src/usart.c ****     /**USART2 GPIO Configuration
 178:Core/Src/usart.c ****     PA2     ------> USART2_TX
 179:Core/Src/usart.c ****     PA3     ------> USART2_RX
 180:Core/Src/usart.c ****     */
 181:Core/Src/usart.c ****     GPIO_InitStruct.Pin = GPIO_PIN_2|GPIO_PIN_3;
 182:Core/Src/usart.c ****     GPIO_InitStruct.Mode = GPIO_MODE_AF_PP;
 183:Core/Src/usart.c ****     GPIO_InitStruct.Pull = GPIO_NOPULL;
 184:Core/Src/usart.c ****     GPIO_InitStruct.Speed = GPIO_SPEED_FREQ_LOW;
 185:Core/Src/usart.c ****     GPIO_InitStruct.Alternate = GPIO_AF7_USART2;
 186:Core/Src/usart.c ****     HAL_GPIO_Init(GPIOA, &GPIO_InitStruct);
 187:Core/Src/usart.c **** 
 188:Core/Src/usart.c ****   /* USER CODE BEGIN USART2_MspInit 1 */
 189:Core/Src/usart.c **** 
 190:Core/Src/usart.c ****   /* USER CODE END USART2_MspInit 1 */
 191:Core/Src/usart.c ****   }
 192:Core/Src/usart.c **** }
 313              		.loc 1 192 1 view .LVU94
 314 0028 1EB0     		add	sp, sp, #120
 315              	.LCFI4:
 316              		.cfi_remember_state
 317              		.cfi_def_cfa_offset 8
 318              		@ sp needed
ARM GAS  C:\Users\michael\AppData\Local\Temp\ccbZITOd.s 			page 10


 319 002a 10BD     		pop	{r4, pc}
 320              	.LVL19:
 321              	.L31:
 322              	.LCFI5:
 323              		.cfi_restore_state
 132:Core/Src/usart.c ****     PeriphClkInit.Usart1ClockSelection = RCC_USART1CLKSOURCE_PCLK2;
 324              		.loc 1 132 5 is_stmt 1 view .LVU95
 132:Core/Src/usart.c ****     PeriphClkInit.Usart1ClockSelection = RCC_USART1CLKSOURCE_PCLK2;
 325              		.loc 1 132 40 is_stmt 0 view .LVU96
 326 002c 0123     		movs	r3, #1
 327 002e 0493     		str	r3, [sp, #16]
 133:Core/Src/usart.c ****     if (HAL_RCCEx_PeriphCLKConfig(&PeriphClkInit) != HAL_OK)
 328              		.loc 1 133 5 is_stmt 1 view .LVU97
 134:Core/Src/usart.c ****     {
 329              		.loc 1 134 5 view .LVU98
 134:Core/Src/usart.c ****     {
 330              		.loc 1 134 9 is_stmt 0 view .LVU99
 331 0030 04A8     		add	r0, sp, #16
 332 0032 FFF7FEFF 		bl	HAL_RCCEx_PeriphCLKConfig
 333              	.LVL20:
 134:Core/Src/usart.c ****     {
 334              		.loc 1 134 8 discriminator 1 view .LVU100
 335 0036 10BB     		cbnz	r0, .L33
 336              	.L27:
 140:Core/Src/usart.c **** 
 337              		.loc 1 140 5 is_stmt 1 view .LVU101
 338              	.LBB2:
 140:Core/Src/usart.c **** 
 339              		.loc 1 140 5 view .LVU102
 140:Core/Src/usart.c **** 
 340              		.loc 1 140 5 view .LVU103
 341 0038 2A4B     		ldr	r3, .L35+8
 342 003a 1A6E     		ldr	r2, [r3, #96]
 343 003c 42F48042 		orr	r2, r2, #16384
 344 0040 1A66     		str	r2, [r3, #96]
 140:Core/Src/usart.c **** 
 345              		.loc 1 140 5 view .LVU104
 346 0042 1A6E     		ldr	r2, [r3, #96]
 347 0044 02F48042 		and	r2, r2, #16384
 348 0048 0092     		str	r2, [sp]
 140:Core/Src/usart.c **** 
 349              		.loc 1 140 5 view .LVU105
 350 004a 009A     		ldr	r2, [sp]
 351              	.LBE2:
 140:Core/Src/usart.c **** 
 352              		.loc 1 140 5 view .LVU106
 142:Core/Src/usart.c ****     /**USART1 GPIO Configuration
 353              		.loc 1 142 5 view .LVU107
 354              	.LBB3:
 142:Core/Src/usart.c ****     /**USART1 GPIO Configuration
 355              		.loc 1 142 5 view .LVU108
 142:Core/Src/usart.c ****     /**USART1 GPIO Configuration
 356              		.loc 1 142 5 view .LVU109
 357 004c DA6C     		ldr	r2, [r3, #76]
 358 004e 42F00102 		orr	r2, r2, #1
 359 0052 DA64     		str	r2, [r3, #76]
 142:Core/Src/usart.c ****     /**USART1 GPIO Configuration
ARM GAS  C:\Users\michael\AppData\Local\Temp\ccbZITOd.s 			page 11


 360              		.loc 1 142 5 view .LVU110
 361 0054 DB6C     		ldr	r3, [r3, #76]
 362 0056 03F00103 		and	r3, r3, #1
 363 005a 0193     		str	r3, [sp, #4]
 142:Core/Src/usart.c ****     /**USART1 GPIO Configuration
 364              		.loc 1 142 5 view .LVU111
 365 005c 019B     		ldr	r3, [sp, #4]
 366              	.LBE3:
 142:Core/Src/usart.c ****     /**USART1 GPIO Configuration
 367              		.loc 1 142 5 view .LVU112
 147:Core/Src/usart.c ****     GPIO_InitStruct.Mode = GPIO_MODE_AF_PP;
 368              		.loc 1 147 5 view .LVU113
 147:Core/Src/usart.c ****     GPIO_InitStruct.Mode = GPIO_MODE_AF_PP;
 369              		.loc 1 147 25 is_stmt 0 view .LVU114
 370 005e 4FF4C063 		mov	r3, #1536
 371 0062 1993     		str	r3, [sp, #100]
 148:Core/Src/usart.c ****     GPIO_InitStruct.Pull = GPIO_NOPULL;
 372              		.loc 1 148 5 is_stmt 1 view .LVU115
 148:Core/Src/usart.c ****     GPIO_InitStruct.Pull = GPIO_NOPULL;
 373              		.loc 1 148 26 is_stmt 0 view .LVU116
 374 0064 0223     		movs	r3, #2
 375 0066 1A93     		str	r3, [sp, #104]
 149:Core/Src/usart.c ****     GPIO_InitStruct.Speed = GPIO_SPEED_FREQ_LOW;
 376              		.loc 1 149 5 is_stmt 1 view .LVU117
 149:Core/Src/usart.c ****     GPIO_InitStruct.Speed = GPIO_SPEED_FREQ_LOW;
 377              		.loc 1 149 26 is_stmt 0 view .LVU118
 378 0068 0023     		movs	r3, #0
 379 006a 1B93     		str	r3, [sp, #108]
 150:Core/Src/usart.c ****     GPIO_InitStruct.Alternate = GPIO_AF7_USART1;
 380              		.loc 1 150 5 is_stmt 1 view .LVU119
 150:Core/Src/usart.c ****     GPIO_InitStruct.Alternate = GPIO_AF7_USART1;
 381              		.loc 1 150 27 is_stmt 0 view .LVU120
 382 006c 1C93     		str	r3, [sp, #112]
 151:Core/Src/usart.c ****     HAL_GPIO_Init(GPIOA, &GPIO_InitStruct);
 383              		.loc 1 151 5 is_stmt 1 view .LVU121
 151:Core/Src/usart.c ****     HAL_GPIO_Init(GPIOA, &GPIO_InitStruct);
 384              		.loc 1 151 31 is_stmt 0 view .LVU122
 385 006e 0723     		movs	r3, #7
 386 0070 1D93     		str	r3, [sp, #116]
 152:Core/Src/usart.c **** 
 387              		.loc 1 152 5 is_stmt 1 view .LVU123
 388 0072 19A9     		add	r1, sp, #100
 389 0074 4FF09040 		mov	r0, #1207959552
 390 0078 FFF7FEFF 		bl	HAL_GPIO_Init
 391              	.LVL21:
 392 007c D4E7     		b	.L25
 393              	.L33:
 136:Core/Src/usart.c ****     }
 394              		.loc 1 136 7 view .LVU124
 395 007e FFF7FEFF 		bl	Error_Handler
 396              	.LVL22:
 397 0082 D9E7     		b	.L27
 398              	.L32:
 166:Core/Src/usart.c ****     PeriphClkInit.Usart2ClockSelection = RCC_USART2CLKSOURCE_PCLK1;
 399              		.loc 1 166 5 view .LVU125
 166:Core/Src/usart.c ****     PeriphClkInit.Usart2ClockSelection = RCC_USART2CLKSOURCE_PCLK1;
 400              		.loc 1 166 40 is_stmt 0 view .LVU126
ARM GAS  C:\Users\michael\AppData\Local\Temp\ccbZITOd.s 			page 12


 401 0084 0223     		movs	r3, #2
 402 0086 0493     		str	r3, [sp, #16]
 167:Core/Src/usart.c ****     if (HAL_RCCEx_PeriphCLKConfig(&PeriphClkInit) != HAL_OK)
 403              		.loc 1 167 5 is_stmt 1 view .LVU127
 168:Core/Src/usart.c ****     {
 404              		.loc 1 168 5 view .LVU128
 168:Core/Src/usart.c ****     {
 405              		.loc 1 168 9 is_stmt 0 view .LVU129
 406 0088 04A8     		add	r0, sp, #16
 407 008a FFF7FEFF 		bl	HAL_RCCEx_PeriphCLKConfig
 408              	.LVL23:
 168:Core/Src/usart.c ****     {
 409              		.loc 1 168 8 discriminator 1 view .LVU130
 410 008e 08BB     		cbnz	r0, .L34
 411              	.L29:
 174:Core/Src/usart.c **** 
 412              		.loc 1 174 5 is_stmt 1 view .LVU131
 413              	.LBB4:
 174:Core/Src/usart.c **** 
 414              		.loc 1 174 5 view .LVU132
 174:Core/Src/usart.c **** 
 415              		.loc 1 174 5 view .LVU133
 416 0090 144B     		ldr	r3, .L35+8
 417 0092 9A6D     		ldr	r2, [r3, #88]
 418 0094 42F40032 		orr	r2, r2, #131072
 419 0098 9A65     		str	r2, [r3, #88]
 174:Core/Src/usart.c **** 
 420              		.loc 1 174 5 view .LVU134
 421 009a 9A6D     		ldr	r2, [r3, #88]
 422 009c 02F40032 		and	r2, r2, #131072
 423 00a0 0292     		str	r2, [sp, #8]
 174:Core/Src/usart.c **** 
 424              		.loc 1 174 5 view .LVU135
 425 00a2 029A     		ldr	r2, [sp, #8]
 426              	.LBE4:
 174:Core/Src/usart.c **** 
 427              		.loc 1 174 5 view .LVU136
 176:Core/Src/usart.c ****     /**USART2 GPIO Configuration
 428              		.loc 1 176 5 view .LVU137
 429              	.LBB5:
 176:Core/Src/usart.c ****     /**USART2 GPIO Configuration
 430              		.loc 1 176 5 view .LVU138
 176:Core/Src/usart.c ****     /**USART2 GPIO Configuration
 431              		.loc 1 176 5 view .LVU139
 432 00a4 DA6C     		ldr	r2, [r3, #76]
 433 00a6 42F00102 		orr	r2, r2, #1
 434 00aa DA64     		str	r2, [r3, #76]
 176:Core/Src/usart.c ****     /**USART2 GPIO Configuration
 435              		.loc 1 176 5 view .LVU140
 436 00ac DB6C     		ldr	r3, [r3, #76]
 437 00ae 03F00103 		and	r3, r3, #1
 438 00b2 0393     		str	r3, [sp, #12]
 176:Core/Src/usart.c ****     /**USART2 GPIO Configuration
 439              		.loc 1 176 5 view .LVU141
 440 00b4 039B     		ldr	r3, [sp, #12]
 441              	.LBE5:
 176:Core/Src/usart.c ****     /**USART2 GPIO Configuration
ARM GAS  C:\Users\michael\AppData\Local\Temp\ccbZITOd.s 			page 13


 442              		.loc 1 176 5 view .LVU142
 181:Core/Src/usart.c ****     GPIO_InitStruct.Mode = GPIO_MODE_AF_PP;
 443              		.loc 1 181 5 view .LVU143
 181:Core/Src/usart.c ****     GPIO_InitStruct.Mode = GPIO_MODE_AF_PP;
 444              		.loc 1 181 25 is_stmt 0 view .LVU144
 445 00b6 0C23     		movs	r3, #12
 446 00b8 1993     		str	r3, [sp, #100]
 182:Core/Src/usart.c ****     GPIO_InitStruct.Pull = GPIO_NOPULL;
 447              		.loc 1 182 5 is_stmt 1 view .LVU145
 182:Core/Src/usart.c ****     GPIO_InitStruct.Pull = GPIO_NOPULL;
 448              		.loc 1 182 26 is_stmt 0 view .LVU146
 449 00ba 0223     		movs	r3, #2
 450 00bc 1A93     		str	r3, [sp, #104]
 183:Core/Src/usart.c ****     GPIO_InitStruct.Speed = GPIO_SPEED_FREQ_LOW;
 451              		.loc 1 183 5 is_stmt 1 view .LVU147
 183:Core/Src/usart.c ****     GPIO_InitStruct.Speed = GPIO_SPEED_FREQ_LOW;
 452              		.loc 1 183 26 is_stmt 0 view .LVU148
 453 00be 0023     		movs	r3, #0
 454 00c0 1B93     		str	r3, [sp, #108]
 184:Core/Src/usart.c ****     GPIO_InitStruct.Alternate = GPIO_AF7_USART2;
 455              		.loc 1 184 5 is_stmt 1 view .LVU149
 184:Core/Src/usart.c ****     GPIO_InitStruct.Alternate = GPIO_AF7_USART2;
 456              		.loc 1 184 27 is_stmt 0 view .LVU150
 457 00c2 1C93     		str	r3, [sp, #112]
 185:Core/Src/usart.c ****     HAL_GPIO_Init(GPIOA, &GPIO_InitStruct);
 458              		.loc 1 185 5 is_stmt 1 view .LVU151
 185:Core/Src/usart.c ****     HAL_GPIO_Init(GPIOA, &GPIO_InitStruct);
 459              		.loc 1 185 31 is_stmt 0 view .LVU152
 460 00c4 0723     		movs	r3, #7
 461 00c6 1D93     		str	r3, [sp, #116]
 186:Core/Src/usart.c **** 
 462              		.loc 1 186 5 is_stmt 1 view .LVU153
 463 00c8 19A9     		add	r1, sp, #100
 464 00ca 4FF09040 		mov	r0, #1207959552
 465 00ce FFF7FEFF 		bl	HAL_GPIO_Init
 466              	.LVL24:
 467              		.loc 1 192 1 is_stmt 0 view .LVU154
 468 00d2 A9E7     		b	.L25
 469              	.L34:
 170:Core/Src/usart.c ****     }
 470              		.loc 1 170 7 is_stmt 1 view .LVU155
 471 00d4 FFF7FEFF 		bl	Error_Handler
 472              	.LVL25:
 473 00d8 DAE7     		b	.L29
 474              	.L36:
 475 00da 00BF     		.align	2
 476              	.L35:
 477 00dc 00380140 		.word	1073821696
 478 00e0 00440040 		.word	1073759232
 479 00e4 00100240 		.word	1073876992
 480              		.cfi_endproc
 481              	.LFE134:
 483              		.section	.text.HAL_UART_MspDeInit,"ax",%progbits
 484              		.align	1
 485              		.global	HAL_UART_MspDeInit
 486              		.syntax unified
 487              		.thumb
ARM GAS  C:\Users\michael\AppData\Local\Temp\ccbZITOd.s 			page 14


 488              		.thumb_func
 490              	HAL_UART_MspDeInit:
 491              	.LVL26:
 492              	.LFB135:
 193:Core/Src/usart.c **** 
 194:Core/Src/usart.c **** void HAL_UART_MspDeInit(UART_HandleTypeDef* uartHandle)
 195:Core/Src/usart.c **** {
 493              		.loc 1 195 1 view -0
 494              		.cfi_startproc
 495              		@ args = 0, pretend = 0, frame = 0
 496              		@ frame_needed = 0, uses_anonymous_args = 0
 497              		.loc 1 195 1 is_stmt 0 view .LVU157
 498 0000 08B5     		push	{r3, lr}
 499              	.LCFI6:
 500              		.cfi_def_cfa_offset 8
 501              		.cfi_offset 3, -8
 502              		.cfi_offset 14, -4
 196:Core/Src/usart.c **** 
 197:Core/Src/usart.c ****   if(uartHandle->Instance==USART1)
 503              		.loc 1 197 3 is_stmt 1 view .LVU158
 504              		.loc 1 197 16 is_stmt 0 view .LVU159
 505 0002 0368     		ldr	r3, [r0]
 506              		.loc 1 197 5 view .LVU160
 507 0004 0F4A     		ldr	r2, .L43
 508 0006 9342     		cmp	r3, r2
 509 0008 03D0     		beq	.L41
 198:Core/Src/usart.c ****   {
 199:Core/Src/usart.c ****   /* USER CODE BEGIN USART1_MspDeInit 0 */
 200:Core/Src/usart.c **** 
 201:Core/Src/usart.c ****   /* USER CODE END USART1_MspDeInit 0 */
 202:Core/Src/usart.c ****     /* Peripheral clock disable */
 203:Core/Src/usart.c ****     __HAL_RCC_USART1_CLK_DISABLE();
 204:Core/Src/usart.c **** 
 205:Core/Src/usart.c ****     /**USART1 GPIO Configuration
 206:Core/Src/usart.c ****     PA9     ------> USART1_TX
 207:Core/Src/usart.c ****     PA10     ------> USART1_RX
 208:Core/Src/usart.c ****     */
 209:Core/Src/usart.c ****     HAL_GPIO_DeInit(GPIOA, GPIO_PIN_9|GPIO_PIN_10);
 210:Core/Src/usart.c **** 
 211:Core/Src/usart.c ****   /* USER CODE BEGIN USART1_MspDeInit 1 */
 212:Core/Src/usart.c **** 
 213:Core/Src/usart.c ****   /* USER CODE END USART1_MspDeInit 1 */
 214:Core/Src/usart.c ****   }
 215:Core/Src/usart.c ****   else if(uartHandle->Instance==USART2)
 510              		.loc 1 215 8 is_stmt 1 view .LVU161
 511              		.loc 1 215 10 is_stmt 0 view .LVU162
 512 000a 0F4A     		ldr	r2, .L43+4
 513 000c 9342     		cmp	r3, r2
 514 000e 0DD0     		beq	.L42
 515              	.LVL27:
 516              	.L37:
 216:Core/Src/usart.c ****   {
 217:Core/Src/usart.c ****   /* USER CODE BEGIN USART2_MspDeInit 0 */
 218:Core/Src/usart.c **** 
 219:Core/Src/usart.c ****   /* USER CODE END USART2_MspDeInit 0 */
 220:Core/Src/usart.c ****     /* Peripheral clock disable */
 221:Core/Src/usart.c ****     __HAL_RCC_USART2_CLK_DISABLE();
ARM GAS  C:\Users\michael\AppData\Local\Temp\ccbZITOd.s 			page 15


 222:Core/Src/usart.c **** 
 223:Core/Src/usart.c ****     /**USART2 GPIO Configuration
 224:Core/Src/usart.c ****     PA2     ------> USART2_TX
 225:Core/Src/usart.c ****     PA3     ------> USART2_RX
 226:Core/Src/usart.c ****     */
 227:Core/Src/usart.c ****     HAL_GPIO_DeInit(GPIOA, GPIO_PIN_2|GPIO_PIN_3);
 228:Core/Src/usart.c **** 
 229:Core/Src/usart.c ****   /* USER CODE BEGIN USART2_MspDeInit 1 */
 230:Core/Src/usart.c **** 
 231:Core/Src/usart.c ****   /* USER CODE END USART2_MspDeInit 1 */
 232:Core/Src/usart.c ****   }
 233:Core/Src/usart.c **** }
 517              		.loc 1 233 1 view .LVU163
 518 0010 08BD     		pop	{r3, pc}
 519              	.LVL28:
 520              	.L41:
 203:Core/Src/usart.c **** 
 521              		.loc 1 203 5 is_stmt 1 view .LVU164
 522 0012 02F55842 		add	r2, r2, #55296
 523 0016 136E     		ldr	r3, [r2, #96]
 524 0018 23F48043 		bic	r3, r3, #16384
 525 001c 1366     		str	r3, [r2, #96]
 209:Core/Src/usart.c **** 
 526              		.loc 1 209 5 view .LVU165
 527 001e 4FF4C061 		mov	r1, #1536
 528 0022 4FF09040 		mov	r0, #1207959552
 529              	.LVL29:
 209:Core/Src/usart.c **** 
 530              		.loc 1 209 5 is_stmt 0 view .LVU166
 531 0026 FFF7FEFF 		bl	HAL_GPIO_DeInit
 532              	.LVL30:
 533 002a F1E7     		b	.L37
 534              	.LVL31:
 535              	.L42:
 221:Core/Src/usart.c **** 
 536              		.loc 1 221 5 is_stmt 1 view .LVU167
 537 002c 02F5E632 		add	r2, r2, #117760
 538 0030 936D     		ldr	r3, [r2, #88]
 539 0032 23F40033 		bic	r3, r3, #131072
 540 0036 9365     		str	r3, [r2, #88]
 227:Core/Src/usart.c **** 
 541              		.loc 1 227 5 view .LVU168
 542 0038 0C21     		movs	r1, #12
 543 003a 4FF09040 		mov	r0, #1207959552
 544              	.LVL32:
 227:Core/Src/usart.c **** 
 545              		.loc 1 227 5 is_stmt 0 view .LVU169
 546 003e FFF7FEFF 		bl	HAL_GPIO_DeInit
 547              	.LVL33:
 548              		.loc 1 233 1 view .LVU170
 549 0042 E5E7     		b	.L37
 550              	.L44:
 551              		.align	2
 552              	.L43:
 553 0044 00380140 		.word	1073821696
 554 0048 00440040 		.word	1073759232
 555              		.cfi_endproc
ARM GAS  C:\Users\michael\AppData\Local\Temp\ccbZITOd.s 			page 16


 556              	.LFE135:
 558              		.global	huart2
 559              		.section	.bss.huart2,"aw",%nobits
 560              		.align	2
 563              	huart2:
 564 0000 00000000 		.space	148
 564      00000000 
 564      00000000 
 564      00000000 
 564      00000000 
 565              		.global	huart1
 566              		.section	.bss.huart1,"aw",%nobits
 567              		.align	2
 570              	huart1:
 571 0000 00000000 		.space	148
 571      00000000 
 571      00000000 
 571      00000000 
 571      00000000 
 572              		.text
 573              	.Letext0:
 574              		.file 2 "C:/Dev Tools/ARM-GCC/arm-gnu-toolchain-13.3.rel1-mingw-w64-i686-arm-none-eabi/arm-none-ea
 575              		.file 3 "C:/Dev Tools/ARM-GCC/arm-gnu-toolchain-13.3.rel1-mingw-w64-i686-arm-none-eabi/arm-none-ea
 576              		.file 4 "Drivers/CMSIS/Device/ST/STM32G4xx/Include/stm32g474xx.h"
 577              		.file 5 "Drivers/STM32G4xx_HAL_Driver/Inc/stm32g4xx_hal_def.h"
 578              		.file 6 "Drivers/STM32G4xx_HAL_Driver/Inc/stm32g4xx_hal_rcc_ex.h"
 579              		.file 7 "Drivers/STM32G4xx_HAL_Driver/Inc/stm32g4xx_hal_gpio.h"
 580              		.file 8 "Drivers/STM32G4xx_HAL_Driver/Inc/stm32g4xx_hal_dma.h"
 581              		.file 9 "Drivers/STM32G4xx_HAL_Driver/Inc/stm32g4xx_hal_uart.h"
 582              		.file 10 "Core/Inc/usart.h"
 583              		.file 11 "Drivers/STM32G4xx_HAL_Driver/Inc/stm32g4xx_hal_uart_ex.h"
 584              		.file 12 "Core/Inc/main.h"
 585              		.file 13 "<built-in>"
ARM GAS  C:\Users\michael\AppData\Local\Temp\ccbZITOd.s 			page 17

